; Function Attrs: nounwind uwtable
define hidden void @luaD_hookcall(ptr noundef initializes((180, 184)) %0, ptr noundef captures(none) %1) local_unnamed_addr #0 {
  %3 = alloca %struct.lua_Debug, align 8
  %4 = getelementptr inbounds nuw i8, ptr %0, i64 180
  store i32 0, ptr %4, align 4, !tbaa !53
  %5 = getelementptr inbounds nuw i8, ptr %0, i64 192
  %6 = load volatile i32, ptr %5, align 8, !tbaa !54
  %7 = and i32 %6, 1
  %.not = icmp eq i32 %7, 0
  br i1 %.not, label %79, label %8

8:                                                ; preds = %2
  %9 = getelementptr inbounds nuw i8, ptr %1, i64 60
  %10 = load i32, ptr %9, align 4, !tbaa !43
  %11 = lshr i32 %10, 20
  %12 = and i32 %11, 4
  %13 = load ptr, ptr %1, align 8, !tbaa !27
  %14 = load ptr, ptr %13, align 8, !tbaa !27
  %15 = getelementptr inbounds nuw i8, ptr %14, i64 24
  %16 = load ptr, ptr %15, align 8, !tbaa !55
  %17 = getelementptr inbounds nuw i8, ptr %1, i64 32
  %18 = load ptr, ptr %17, align 8, !tbaa !27
  %19 = getelementptr inbounds nuw i8, ptr %18, i64 4
  store ptr %19, ptr %17, align 8, !tbaa !27
  %20 = getelementptr inbounds nuw i8, ptr %16, i64 10
  %21 = load i8, ptr %20, align 2, !tbaa !58
  %22 = zext i8 %21 to i32
  %23 = getelementptr inbounds nuw i8, ptr %0, i64 160
  %24 = load volatile ptr, ptr %23, align 8, !tbaa !44
  %.not.i = icmp eq ptr %24, null
  br i1 %.not.i, label %luaD_hook.exit, label %25

25:                                               ; preds = %8
  %26 = getelementptr inbounds nuw i8, ptr %0, i64 11
  %27 = load i8, ptr %26, align 1, !tbaa !45
  %.not40.i = icmp eq i8 %27, 0
  br i1 %.not40.i, label %luaD_hook.exit, label %28

28:                                               ; preds = %25
  %29 = getelementptr inbounds nuw i8, ptr %0, i64 32
  %30 = load ptr, ptr %29, align 8, !tbaa !46
  %31 = getelementptr inbounds nuw i8, ptr %0, i64 16
  %32 = load ptr, ptr %31, align 8, !tbaa !27
  %33 = getelementptr inbounds nuw i8, ptr %0, i64 48
  %34 = load ptr, ptr %33, align 8, !tbaa !27
  %35 = ptrtoint ptr %32 to i64
  %36 = ptrtoint ptr %34 to i64
  %37 = sub i64 %35, %36
  %38 = getelementptr inbounds nuw i8, ptr %30, i64 8
  %39 = load ptr, ptr %38, align 8, !tbaa !27
  %40 = ptrtoint ptr %39 to i64
  %41 = sub i64 %40, %36
  call void @llvm.lifetime.start.p0(i64 144, ptr nonnull %3) #13
  store i32 %12, ptr %3, align 8, !tbaa !47
  %42 = getelementptr inbounds nuw i8, ptr %3, i64 48
  store i32 -1, ptr %42, align 8, !tbaa !49
  %43 = getelementptr inbounds nuw i8, ptr %3, i64 136
  store ptr %30, ptr %43, align 8, !tbaa !50
  %44 = getelementptr inbounds nuw i8, ptr %0, i64 196
  store i32 1, ptr %44, align 4, !tbaa !51
  %45 = getelementptr inbounds nuw i8, ptr %0, i64 200
  store i32 %22, ptr %45, align 4, !tbaa !52
  %46 = getelementptr inbounds nuw i8, ptr %30, i64 60
  %47 = load i32, ptr %46, align 4, !tbaa !43
  %48 = and i32 %47, 32768
  %.not41.i = icmp eq i32 %48, 0
  br i1 %.not41.i, label %49, label %53

49:                                               ; preds = %28
  %50 = load ptr, ptr %38, align 8, !tbaa !27
  %51 = icmp ult ptr %32, %50
  br i1 %51, label %52, label %53

52:                                               ; preds = %49
  store ptr %50, ptr %31, align 8, !tbaa !27
  %.pre42.i = ptrtoint ptr %50 to i64
  br label %53

53:                                               ; preds = %52, %49, %28
  %.pre-phi.i = phi i64 [ %.pre42.i, %52 ], [ %35, %49 ], [ %35, %28 ]
  %54 = phi ptr [ %50, %52 ], [ %32, %49 ], [ %32, %28 ]
  %55 = getelementptr inbounds nuw i8, ptr %0, i64 40
  %56 = load ptr, ptr %55, align 8, !tbaa !27
  %57 = ptrtoint ptr %56 to i64
  %58 = sub i64 %57, %.pre-phi.i
  %59 = icmp slt i64 %58, 336
  br i1 %59, label %60, label %62, !prof !42

60:                                               ; preds = %53
  %61 = tail call i32 @luaD_growstack(ptr noundef nonnull %0, i32 noundef 20, i32 noundef 1)
  %.pre.i = load ptr, ptr %31, align 8, !tbaa !27
  br label %62

62:                                               ; preds = %60, %53
  %63 = phi ptr [ %54, %53 ], [ %.pre.i, %60 ]
  %64 = load ptr, ptr %38, align 8, !tbaa !27
  %65 = getelementptr inbounds nuw i8, ptr %63, i64 320
  %66 = icmp ult ptr %64, %65
  br i1 %66, label %67, label %68

67:                                               ; preds = %62
  store ptr %65, ptr %38, align 8, !tbaa !27
  br label %68

68:                                               ; preds = %67, %62
  store i8 0, ptr %26, align 1, !tbaa !45
  %69 = load i32, ptr %46, align 4, !tbaa !43
  %70 = or i32 %69, 1048576
  store i32 %70, ptr %46, align 4, !tbaa !43
  call void %24(ptr noundef nonnull %0, ptr noundef nonnull %3) #13
  store i8 1, ptr %26, align 1, !tbaa !45
  %71 = load ptr, ptr %33, align 8, !tbaa !27
  %72 = getelementptr inbounds i8, ptr %71, i64 %41
  store ptr %72, ptr %38, align 8, !tbaa !27
  %73 = load ptr, ptr %33, align 8, !tbaa !27
  %74 = getelementptr inbounds i8, ptr %73, i64 %37
  store ptr %74, ptr %31, align 8, !tbaa !27
  %75 = load i32, ptr %46, align 4, !tbaa !43
  %76 = and i32 %75, -1048577
  store i32 %76, ptr %46, align 4, !tbaa !43
  call void @llvm.lifetime.end.p0(i64 144, ptr nonnull %3) #13
  %.pre = load ptr, ptr %17, align 8, !tbaa !27
  br label %luaD_hook.exit

luaD_hook.exit:                                   ; preds = %8, %25, %68
  %77 = phi ptr [ %19, %8 ], [ %19, %25 ], [ %.pre, %68 ]
  %78 = getelementptr inbounds i8, ptr %77, i64 -4
  store ptr %78, ptr %17, align 8, !tbaa !27
  br label %79

79:                                               ; preds = %luaD_hook.exit, %2
  ret void
}